target datalayout = "e-m:e-p270:32:32-p271:32:32-p272:64:64-i64:64-i128:128-f80:128-n8:16:32:64-S128"
target triple = "x86_64-pc-linux-gnu"

%struct.ss_scan_locations_t = type { ptr, ptr, [0 x %struct.ss_lru_item_t] }
%struct.ss_lru_item_t = type { ptr, ptr, %struct.ss_scan_location_t }
%struct.ss_scan_location_t = type { %struct.RelFileLocator, i32 }
%struct.RelFileLocator = type { i32, i32, i32 }

@.str = private unnamed_addr constant [25 x i8] c"Sync Scan Locations List\00", align 1
@scan_locations = internal global ptr null, align 8
@IsUnderPostmaster = external global i8, align 1

; Function Attrs: nounwind uwtable
define dso_local void @SyncScanShmemInit() #0 {
  %1 = alloca i32, align 4
  %2 = alloca i8, align 1
  %3 = alloca ptr, align 8
  call void @llvm.lifetime.start.p0(i64 4, ptr %1) #4
  call void @llvm.lifetime.start.p0(i64 1, ptr %2) #4
  %4 = call ptr @ShmemInitStruct(ptr noundef @.str, i64 noundef 656, ptr noundef %2)
  store ptr %4, ptr @scan_locations, align 8
  %5 = load i8, ptr @IsUnderPostmaster, align 1, !range !4, !noundef !5
  %6 = trunc i8 %5 to i1
  br i1 %6, label %74, label %7

7:                                                ; preds = %0
  %8 = load ptr, ptr @scan_locations, align 8
  %9 = getelementptr inbounds nuw %struct.ss_scan_locations_t, ptr %8, i32 0, i32 2
  %10 = getelementptr inbounds [0 x %struct.ss_lru_item_t], ptr %9, i64 0, i64 0
  %11 = load ptr, ptr @scan_locations, align 8
  %12 = getelementptr inbounds nuw %struct.ss_scan_locations_t, ptr %11, i32 0, i32 0
  store ptr %10, ptr %12, align 8
  %13 = load ptr, ptr @scan_locations, align 8
  %14 = getelementptr inbounds nuw %struct.ss_scan_locations_t, ptr %13, i32 0, i32 2
  %15 = getelementptr inbounds [0 x %struct.ss_lru_item_t], ptr %14, i64 0, i64 19
  %16 = load ptr, ptr @scan_locations, align 8
  %17 = getelementptr inbounds nuw %struct.ss_scan_locations_t, ptr %16, i32 0, i32 1
  store ptr %15, ptr %17, align 8
  store i32 0, ptr %1, align 4
  br label %18

18:                                               ; preds = %70, %7
  %19 = load i32, ptr %1, align 4
  %20 = icmp slt i32 %19, 20
  br i1 %20, label %21, label %73

21:                                               ; preds = %18
  call void @llvm.lifetime.start.p0(i64 8, ptr %3) #4
  %22 = load ptr, ptr @scan_locations, align 8
  %23 = getelementptr inbounds nuw %struct.ss_scan_locations_t, ptr %22, i32 0, i32 2
  %24 = load i32, ptr %1, align 4
  %25 = sext i32 %24 to i64
  %26 = getelementptr inbounds [0 x %struct.ss_lru_item_t], ptr %23, i64 0, i64 %25
  store ptr %26, ptr %3, align 8
  %27 = load ptr, ptr %3, align 8
  %28 = getelementptr inbounds nuw %struct.ss_lru_item_t, ptr %27, i32 0, i32 2
  %29 = getelementptr inbounds nuw %struct.ss_scan_location_t, ptr %28, i32 0, i32 0
  %30 = getelementptr inbounds nuw %struct.RelFileLocator, ptr %29, i32 0, i32 0
  store i32 0, ptr %30, align 8
  %31 = load ptr, ptr %3, align 8
  %32 = getelementptr inbounds nuw %struct.ss_lru_item_t, ptr %31, i32 0, i32 2
  %33 = getelementptr inbounds nuw %struct.ss_scan_location_t, ptr %32, i32 0, i32 0
  %34 = getelementptr inbounds nuw %struct.RelFileLocator, ptr %33, i32 0, i32 1
  store i32 0, ptr %34, align 4
  %35 = load ptr, ptr %3, align 8
  %36 = getelementptr inbounds nuw %struct.ss_lru_item_t, ptr %35, i32 0, i32 2
  %37 = getelementptr inbounds nuw %struct.ss_scan_location_t, ptr %36, i32 0, i32 0
  %38 = getelementptr inbounds nuw %struct.RelFileLocator, ptr %37, i32 0, i32 2
  store i32 0, ptr %38, align 8
  %39 = load ptr, ptr %3, align 8
  %40 = getelementptr inbounds nuw %struct.ss_lru_item_t, ptr %39, i32 0, i32 2
  %41 = getelementptr inbounds nuw %struct.ss_scan_location_t, ptr %40, i32 0, i32 1
  store i32 -1, ptr %41, align 4
  %42 = load i32, ptr %1, align 4
  %43 = icmp sgt i32 %42, 0
  br i1 %43, label %44, label %51

44:                                               ; preds = %21
  %45 = load ptr, ptr @scan_locations, align 8
  %46 = getelementptr inbounds nuw %struct.ss_scan_locations_t, ptr %45, i32 0, i32 2
  %47 = load i32, ptr %1, align 4
  %48 = sub i32 %47, 1
  %49 = sext i32 %48 to i64
  %50 = getelementptr inbounds [0 x %struct.ss_lru_item_t], ptr %46, i64 0, i64 %49
  br label %52

51:                                               ; preds = %21
  br label %52

52:                                               ; preds = %51, %44
  %53 = phi ptr [ %50, %44 ], [ null, %51 ]
  %54 = load ptr, ptr %3, align 8
  %55 = getelementptr inbounds nuw %struct.ss_lru_item_t, ptr %54, i32 0, i32 0
  store ptr %53, ptr %55, align 8
  %56 = load i32, ptr %1, align 4
  %57 = icmp slt i32 %56, 19
  br i1 %57, label %58, label %65

58:                                               ; preds = %52
  %59 = load ptr, ptr @scan_locations, align 8
  %60 = getelementptr inbounds nuw %struct.ss_scan_locations_t, ptr %59, i32 0, i32 2
  %61 = load i32, ptr %1, align 4
  %62 = add i32 %61, 1
  %63 = sext i32 %62 to i64
  %64 = getelementptr inbounds [0 x %struct.ss_lru_item_t], ptr %60, i64 0, i64 %63
  br label %66

65:                                               ; preds = %52
  br label %66

66:                                               ; preds = %65, %58
  %67 = phi ptr [ %64, %58 ], [ null, %65 ]
  %68 = load ptr, ptr %3, align 8
  %69 = getelementptr inbounds nuw %struct.ss_lru_item_t, ptr %68, i32 0, i32 1
  store ptr %67, ptr %69, align 8
  call void @llvm.lifetime.end.p0(i64 8, ptr %3) #4
  br label %70

70:                                               ; preds = %66
  %71 = load i32, ptr %1, align 4
  %72 = add i32 %71, 1
  store i32 %72, ptr %1, align 4
  br label %18, !llvm.loop !6

73:                                               ; preds = %18
  br label %75

74:                                               ; preds = %0
  br label %75

75:                                               ; preds = %74, %73
  call void @llvm.lifetime.end.p0(i64 1, ptr %2) #4
  call void @llvm.lifetime.end.p0(i64 4, ptr %1) #4
  ret void
}