; Function Attrs: nounwind uwtable
define dso_local void @SyncScanShmemInit() local_unnamed_addr #1 {
  %1 = alloca i8, align 1
  call void @llvm.lifetime.start.p0(i64 1, ptr nonnull %1) #4
  %2 = call ptr @ShmemInitStruct(ptr noundef nonnull @.str, i64 noundef 656, ptr noundef nonnull %1) #4
  store ptr %2, ptr @scan_locations, align 8
  %3 = load i8, ptr @IsUnderPostmaster, align 1, !range !4, !noundef !5
  %4 = trunc nuw i8 %3 to i1
  br i1 %4, label %.loopexit, label %5

5:                                                ; preds = %0
  %6 = getelementptr inbounds nuw i8, ptr %2, i64 16
  store ptr %6, ptr %2, align 8
  %7 = getelementptr inbounds nuw i8, ptr %2, i64 624
  %8 = getelementptr inbounds nuw i8, ptr %2, i64 8
  store ptr %7, ptr %8, align 8
  br label %9

9:                                                ; preds = %5, %9
  %indvars.iv = phi i64 [ 0, %5 ], [ %indvars.iv.next, %9 ]
  %10 = getelementptr inbounds nuw [0 x %struct.ss_lru_item_t], ptr %6, i64 0, i64 %indvars.iv
  %11 = getelementptr inbounds nuw i8, ptr %10, i64 16
  store i32 0, ptr %11, align 8
  %12 = getelementptr inbounds nuw i8, ptr %10, i64 20
  store i32 0, ptr %12, align 4
  %13 = getelementptr inbounds nuw i8, ptr %10, i64 24
  store i32 0, ptr %13, align 8
  %14 = getelementptr inbounds nuw i8, ptr %10, i64 28
  store i32 -1, ptr %14, align 4
  %.not = icmp eq i64 %indvars.iv, 0
  %15 = add nsw i64 %indvars.iv, -1
  %16 = getelementptr inbounds nuw [0 x %struct.ss_lru_item_t], ptr %6, i64 0, i64 %15
  %17 = select i1 %.not, ptr null, ptr %16
  store ptr %17, ptr %10, align 8
  %.not12 = icmp eq i64 %indvars.iv, 19
  %indvars.iv.next = add nuw nsw i64 %indvars.iv, 1
  %18 = getelementptr inbounds nuw [0 x %struct.ss_lru_item_t], ptr %6, i64 0, i64 %indvars.iv.next
  %19 = select i1 %.not12, ptr null, ptr %18
  %20 = getelementptr inbounds nuw i8, ptr %10, i64 8
  store ptr %19, ptr %20, align 8
  %exitcond.not = icmp eq i64 %indvars.iv.next, 20
  br i1 %exitcond.not, label %.loopexit, label %9, !llvm.loop !6

.loopexit:                                        ; preds = %9, %0
  call void @llvm.lifetime.end.p0(i64 1, ptr nonnull %1) #4
  ret void
}